target datalayout = "e-m:e-p270:32:32-p271:32:32-p272:64:64-i64:64-i128:128-f80:128-n8:16:32:64-S128"
target triple = "x86_64-pc-linux-gnu"

%struct.jpeg_decompress_struct = type { ptr, ptr, ptr, ptr, i32, i32, ptr, i32, i32, i32, i32, i32, i32, i32, double, i32, i32, i32, i32, i32, i32, i32, i32, i32, i32, i32, i32, i32, i32, i32, i32, i32, i32, ptr, i32, i32, i32, i32, i32, ptr, [4 x ptr], [4 x ptr], [4 x ptr], i32, ptr, i32, i32, [16 x i8], [16 x i8], [16 x i8], i32, i32, i8, i8, i8, i16, i16, i32, i8, i32, ptr, i32, i32, i32, i32, ptr, i32, [4 x ptr], i32, i32, i32, [10 x i32], i32, i32, i32, i32, i32, ptr, ptr, ptr, ptr, ptr, ptr, ptr, ptr, ptr, ptr, ptr }
%struct.jpeg_error_mgr = type { ptr, ptr, ptr, ptr, ptr, i32, %union.anon, i32, i64, ptr, i32, ptr, i32, i32 }
%union.anon = type { [8 x i32], [48 x i8] }
%struct.jpeg_input_controller = type { ptr, ptr, ptr, ptr, i32, i32 }
%struct.jpeg_source_mgr = type { ptr, i64, ptr, ptr, ptr, ptr, ptr }
%struct.jpeg_decomp_master = type { ptr, ptr, i32, i32, i32, i32, [10 x i32], [10 x i32], i32, i32, ptr }

; Function Attrs: nounwind uwtable
define i32 @jpeg_finish_decompress(ptr noundef %0) #0 {
  %2 = alloca i32, align 4
  %3 = alloca ptr, align 8
  store ptr %0, ptr %3, align 8, !tbaa !3
  %4 = load ptr, ptr %3, align 8, !tbaa !3
  %5 = getelementptr inbounds nuw %struct.jpeg_decompress_struct, ptr %4, i32 0, i32 5
  %6 = load i32, ptr %5, align 4, !tbaa !51
  %7 = icmp eq i32 %6, 205
  br i1 %7, label %13, label %8

8:                                                ; preds = %1
  %9 = load ptr, ptr %3, align 8, !tbaa !3
  %10 = getelementptr inbounds nuw %struct.jpeg_decompress_struct, ptr %9, i32 0, i32 5
  %11 = load i32, ptr %10, align 4, !tbaa !51
  %12 = icmp eq i32 %11, 206
  br i1 %12, label %13, label %46

13:                                               ; preds = %8, %1
  %14 = load ptr, ptr %3, align 8, !tbaa !3
  %15 = getelementptr inbounds nuw %struct.jpeg_decompress_struct, ptr %14, i32 0, i32 15
  %16 = load i32, ptr %15, align 8, !tbaa !77
  %17 = icmp ne i32 %16, 0
  br i1 %17, label %46, label %18

18:                                               ; preds = %13
  %19 = load ptr, ptr %3, align 8, !tbaa !3
  %20 = getelementptr inbounds nuw %struct.jpeg_decompress_struct, ptr %19, i32 0, i32 34
  %21 = load i32, ptr %20, align 8, !tbaa !92
  %22 = load ptr, ptr %3, align 8, !tbaa !3
  %23 = getelementptr inbounds nuw %struct.jpeg_decompress_struct, ptr %22, i32 0, i32 28
  %24 = load i32, ptr %23, align 4, !tbaa !93
  %25 = icmp ult i32 %21, %24
  br i1 %25, label %26, label %37

26:                                               ; preds = %18
  %27 = load ptr, ptr %3, align 8, !tbaa !3
  %28 = getelementptr inbounds nuw %struct.jpeg_decompress_struct, ptr %27, i32 0, i32 0
  %29 = load ptr, ptr %28, align 8, !tbaa !35
  %30 = getelementptr inbounds nuw %struct.jpeg_error_mgr, ptr %29, i32 0, i32 5
  store i32 67, ptr %30, align 8, !tbaa !36
  %31 = load ptr, ptr %3, align 8, !tbaa !3
  %32 = getelementptr inbounds nuw %struct.jpeg_decompress_struct, ptr %31, i32 0, i32 0
  %33 = load ptr, ptr %32, align 8, !tbaa !35
  %34 = getelementptr inbounds nuw %struct.jpeg_error_mgr, ptr %33, i32 0, i32 0
  %35 = load ptr, ptr %34, align 8, !tbaa !39
  %36 = load ptr, ptr %3, align 8, !tbaa !3
  call void %35(ptr noundef %36)
  br label %37

37:                                               ; preds = %26, %18
  %38 = load ptr, ptr %3, align 8, !tbaa !3
  %39 = getelementptr inbounds nuw %struct.jpeg_decompress_struct, ptr %38, i32 0, i32 77
  %40 = load ptr, ptr %39, align 8, !tbaa !54
  %41 = getelementptr inbounds nuw %struct.jpeg_decomp_master, ptr %40, i32 0, i32 1
  %42 = load ptr, ptr %41, align 8, !tbaa !94
  %43 = load ptr, ptr %3, align 8, !tbaa !3
  call void %42(ptr noundef %43)
  %44 = load ptr, ptr %3, align 8, !tbaa !3
  %45 = getelementptr inbounds nuw %struct.jpeg_decompress_struct, ptr %44, i32 0, i32 5
  store i32 210, ptr %45, align 4, !tbaa !51
  br label %80

46:                                               ; preds = %13, %8
  %47 = load ptr, ptr %3, align 8, !tbaa !3
  %48 = getelementptr inbounds nuw %struct.jpeg_decompress_struct, ptr %47, i32 0, i32 5
  %49 = load i32, ptr %48, align 4, !tbaa !51
  %50 = icmp eq i32 %49, 207
  br i1 %50, label %51, label %54

51:                                               ; preds = %46
  %52 = load ptr, ptr %3, align 8, !tbaa !3
  %53 = getelementptr inbounds nuw %struct.jpeg_decompress_struct, ptr %52, i32 0, i32 5
  store i32 210, ptr %53, align 4, !tbaa !51
  br label %79

54:                                               ; preds = %46
  %55 = load ptr, ptr %3, align 8, !tbaa !3
  %56 = getelementptr inbounds nuw %struct.jpeg_decompress_struct, ptr %55, i32 0, i32 5
  %57 = load i32, ptr %56, align 4, !tbaa !51
  %58 = icmp ne i32 %57, 210
  br i1 %58, label %59, label %78

59:                                               ; preds = %54
  %60 = load ptr, ptr %3, align 8, !tbaa !3
  %61 = getelementptr inbounds nuw %struct.jpeg_decompress_struct, ptr %60, i32 0, i32 0
  %62 = load ptr, ptr %61, align 8, !tbaa !35
  %63 = getelementptr inbounds nuw %struct.jpeg_error_mgr, ptr %62, i32 0, i32 5
  store i32 20, ptr %63, align 8, !tbaa !36
  %64 = load ptr, ptr %3, align 8, !tbaa !3
  %65 = getelementptr inbounds nuw %struct.jpeg_decompress_struct, ptr %64, i32 0, i32 5
  %66 = load i32, ptr %65, align 4, !tbaa !51
  %67 = load ptr, ptr %3, align 8, !tbaa !3
  %68 = getelementptr inbounds nuw %struct.jpeg_decompress_struct, ptr %67, i32 0, i32 0
  %69 = load ptr, ptr %68, align 8, !tbaa !35
  %70 = getelementptr inbounds nuw %struct.jpeg_error_mgr, ptr %69, i32 0, i32 6
  %71 = getelementptr inbounds [8 x i32], ptr %70, i64 0, i64 0
  store i32 %66, ptr %71, align 4, !tbaa !38
  %72 = load ptr, ptr %3, align 8, !tbaa !3
  %73 = getelementptr inbounds nuw %struct.jpeg_decompress_struct, ptr %72, i32 0, i32 0
  %74 = load ptr, ptr %73, align 8, !tbaa !35
  %75 = getelementptr inbounds nuw %struct.jpeg_error_mgr, ptr %74, i32 0, i32 0
  %76 = load ptr, ptr %75, align 8, !tbaa !39
  %77 = load ptr, ptr %3, align 8, !tbaa !3
  call void %76(ptr noundef %77)
  br label %78

78:                                               ; preds = %59, %54
  br label %79

79:                                               ; preds = %78, %51
  br label %80

80:                                               ; preds = %79, %37
  br label %81

81:                                               ; preds = %99, %80
  %82 = load ptr, ptr %3, align 8, !tbaa !3
  %83 = getelementptr inbounds nuw %struct.jpeg_decompress_struct, ptr %82, i32 0, i32 81
  %84 = load ptr, ptr %83, align 8, !tbaa !55
  %85 = getelementptr inbounds nuw %struct.jpeg_input_controller, ptr %84, i32 0, i32 5
  %86 = load i32, ptr %85, align 4, !tbaa !90
  %87 = icmp ne i32 %86, 0
  %88 = xor i1 %87, true
  br i1 %88, label %89, label %100

89:                                               ; preds = %81
  %90 = load ptr, ptr %3, align 8, !tbaa !3
  %91 = getelementptr inbounds nuw %struct.jpeg_decompress_struct, ptr %90, i32 0, i32 81
  %92 = load ptr, ptr %91, align 8, !tbaa !55
  %93 = getelementptr inbounds nuw %struct.jpeg_input_controller, ptr %92, i32 0, i32 0
  %94 = load ptr, ptr %93, align 8, !tbaa !60
  %95 = load ptr, ptr %3, align 8, !tbaa !3
  %96 = call i32 %94(ptr noundef %95)
  %97 = icmp eq i32 %96, 0
  br i1 %97, label %98, label %99

98:                                               ; preds = %89
  store i32 0, ptr %2, align 4
  br label %108

99:                                               ; preds = %89
  br label %81, !llvm.loop !95

100:                                              ; preds = %81
  %101 = load ptr, ptr %3, align 8, !tbaa !3
  %102 = getelementptr inbounds nuw %struct.jpeg_decompress_struct, ptr %101, i32 0, i32 6
  %103 = load ptr, ptr %102, align 8, !tbaa !45
  %104 = getelementptr inbounds nuw %struct.jpeg_source_mgr, ptr %103, i32 0, i32 6
  %105 = load ptr, ptr %104, align 8, !tbaa !96
  %106 = load ptr, ptr %3, align 8, !tbaa !3
  call void %105(ptr noundef %106)
  %107 = load ptr, ptr %3, align 8, !tbaa !3
  call void @jpeg_abort(ptr noundef %107)
  store i32 1, ptr %2, align 4
  br label %108

108:                                              ; preds = %100, %98
  %109 = load i32, ptr %2, align 4
  ret i32 %109
}