; Function Attrs: nounwind uwtable
define range(i32 0, 2) i32 @jpeg_finish_decompress(ptr noundef %0) local_unnamed_addr #0 {
  %2 = getelementptr inbounds nuw i8, ptr %0, i64 36
  %3 = load i32, ptr %2, align 4, !tbaa !42
  %.off = add i32 %3, -205
  %switch = icmp ult i32 %.off, 2
  br i1 %switch, label %4, label %22

4:                                                ; preds = %1
  %5 = getelementptr inbounds nuw i8, ptr %0, i64 88
  %6 = load i32, ptr %5, align 8, !tbaa !68
  %.not = icmp eq i32 %6, 0
  br i1 %.not, label %7, label %22

7:                                                ; preds = %4
  %8 = getelementptr inbounds nuw i8, ptr %0, i64 168
  %9 = load i32, ptr %8, align 8, !tbaa !83
  %10 = getelementptr inbounds nuw i8, ptr %0, i64 140
  %11 = load i32, ptr %10, align 4, !tbaa !84
  %12 = icmp ult i32 %9, %11
  br i1 %12, label %13, label %17

13:                                               ; preds = %7
  %14 = load ptr, ptr %0, align 8, !tbaa !30
  %15 = getelementptr inbounds nuw i8, ptr %14, i64 40
  store i32 67, ptr %15, align 8, !tbaa !31
  %16 = load ptr, ptr %14, align 8, !tbaa !35
  tail call void %16(ptr noundef nonnull %0) #3
  br label %17

17:                                               ; preds = %13, %7
  %18 = getelementptr inbounds nuw i8, ptr %0, i64 544
  %19 = load ptr, ptr %18, align 8, !tbaa !45
  %20 = getelementptr inbounds nuw i8, ptr %19, i64 8
  %21 = load ptr, ptr %20, align 8, !tbaa !85
  tail call void %21(ptr noundef nonnull %0) #3
  store i32 210, ptr %2, align 4, !tbaa !42
  br label %30

22:                                               ; preds = %1, %4
  switch i32 %3, label %24 [
    i32 207, label %23
    i32 210, label %30
  ]

23:                                               ; preds = %22
  store i32 210, ptr %2, align 4, !tbaa !42
  br label %30

24:                                               ; preds = %22
  %25 = load ptr, ptr %0, align 8, !tbaa !30
  %26 = getelementptr inbounds nuw i8, ptr %25, i64 40
  store i32 20, ptr %26, align 8, !tbaa !31
  %27 = getelementptr inbounds nuw i8, ptr %25, i64 44
  store i32 %3, ptr %27, align 4, !tbaa !34
  %28 = load ptr, ptr %0, align 8, !tbaa !30
  %29 = load ptr, ptr %28, align 8, !tbaa !35
  tail call void %29(ptr noundef nonnull %0) #3
  br label %30

30:                                               ; preds = %22, %23, %24, %17
  %31 = getelementptr inbounds nuw i8, ptr %0, i64 576
  br label %32

32:                                               ; preds = %36, %30
  %33 = load ptr, ptr %31, align 8, !tbaa !46
  %34 = getelementptr inbounds nuw i8, ptr %33, i64 36
  %35 = load i32, ptr %34, align 4, !tbaa !81
  %.not28 = icmp eq i32 %35, 0
  br i1 %.not28, label %36, label %40

36:                                               ; preds = %32
  %37 = load ptr, ptr %33, align 8, !tbaa !51
  %38 = tail call i32 %37(ptr noundef nonnull %0) #3
  %39 = icmp eq i32 %38, 0
  br i1 %39, label %.loopexit, label %32, !llvm.loop !86

40:                                               ; preds = %32
  %41 = getelementptr inbounds nuw i8, ptr %0, i64 40
  %42 = load ptr, ptr %41, align 8, !tbaa !39
  %43 = getelementptr inbounds nuw i8, ptr %42, i64 48
  %44 = load ptr, ptr %43, align 8, !tbaa !88
  tail call void %44(ptr noundef nonnull %0) #3
  tail call void @jpeg_abort(ptr noundef nonnull %0) #3
  br label %.loopexit

.loopexit:                                        ; preds = %36, %40
  %.0 = phi i32 [ 1, %40 ], [ 0, %36 ]
  ret i32 %.0
}